target datalayout = "e-m:e-p270:32:32-p271:32:32-p272:64:64-i64:64-i128:128-f80:128-n8:16:32:64-S128"
target triple = "x86_64-pc-linux-gnu"

%struct.ml_dsa_key_st = type { ptr, ptr, ptr, ptr, [32 x i8], [64 x i8], [32 x i8], ptr, ptr, ptr, i32, i32, %struct.vector_st, %struct.vector_st, %struct.vector_st, %struct.vector_st }
%struct.vector_st = type { ptr, i64 }
%struct.ml_dsa_params_st = type { ptr, i32, i32, i32, i32, i32, i64, i64, i32, i32, i32, i32, i64, i64, i64 }
%struct.poly_st = type { [256 x i32] }
%struct.PACKET = type { ptr, i64 }

@.str = private unnamed_addr constant [43 x i8] c"../openssl/crypto/ml_dsa/ml_dsa_encoders.c\00", align 1

; Function Attrs: inlinehint nounwind uwtable
define internal i32 @__uint32_identity(i32 noundef %0) #3 {
  %2 = alloca i32, align 4
  store i32 %0, ptr %2, align 4, !tbaa !8
  %3 = load i32, ptr %2, align 4, !tbaa !8
  ret i32 %3
}

; Function Attrs: inlinehint nounwind uwtable
define internal i32 @PACKET_peek_bytes(ptr noundef %0, ptr noundef %1, i64 noundef %2) #3 {
  %4 = alloca i32, align 4
  %5 = alloca ptr, align 8
  %6 = alloca ptr, align 8
  %7 = alloca i64, align 8
  store ptr %0, ptr %5, align 8, !tbaa !40
  store ptr %1, ptr %6, align 8, !tbaa !97
  store i64 %2, ptr %7, align 8, !tbaa !10
  %8 = load ptr, ptr %5, align 8, !tbaa !40
  %9 = call i64 @PACKET_remaining(ptr noundef %8)
  %10 = load i64, ptr %7, align 8, !tbaa !10
  %11 = icmp ult i64 %9, %10
  br i1 %11, label %12, label %13

12:                                               ; preds = %3
  store i32 0, ptr %4, align 4
  br label %18

13:                                               ; preds = %3
  %14 = load ptr, ptr %5, align 8, !tbaa !40
  %15 = getelementptr inbounds nuw %struct.PACKET, ptr %14, i32 0, i32 0
  %16 = load ptr, ptr %15, align 8, !tbaa !41
  %17 = load ptr, ptr %6, align 8, !tbaa !97
  store ptr %16, ptr %17, align 8, !tbaa !25
  store i32 1, ptr %4, align 4
  br label %18

18:                                               ; preds = %13, %12
  %19 = load i32, ptr %4, align 4
  ret i32 %19
}

; Function Attrs: inlinehint nounwind uwtable
define internal i64 @PACKET_remaining(ptr noundef %0) #3 {
  %2 = alloca ptr, align 8
  store ptr %0, ptr %2, align 8, !tbaa !40
  %3 = load ptr, ptr %2, align 8, !tbaa !40
  %4 = getelementptr inbounds nuw %struct.PACKET, ptr %3, i32 0, i32 1
  %5 = load i64, ptr %4, align 8, !tbaa !43
  ret i64 %5
}

; Function Attrs: inlinehint nounwind uwtable
define internal ptr @OPENSSL_load_u32_le(ptr noundef %0, ptr noundef %1) #3 {
  %3 = alloca ptr, align 8
  %4 = alloca ptr, align 8
  %5 = alloca i32, align 4
  store ptr %0, ptr %3, align 8, !tbaa !31
  store ptr %1, ptr %4, align 8, !tbaa !25
  call void @llvm.lifetime.start.p0(i64 4, ptr %5) #7
  %6 = load ptr, ptr %4, align 8, !tbaa !25
  call void @llvm.memcpy.p0.p0.i64(ptr align 4 %5, ptr align 1 %6, i64 4, i1 false)
  %7 = load i32, ptr %5, align 4, !tbaa !8
  %8 = call i32 @__uint32_identity(i32 noundef %7)
  %9 = load ptr, ptr %3, align 8, !tbaa !31
  store i32 %8, ptr %9, align 4, !tbaa !8
  %10 = load ptr, ptr %4, align 8, !tbaa !25
  %11 = getelementptr inbounds i8, ptr %10, i64 4
  call void @llvm.lifetime.end.p0(i64 4, ptr %5) #7
  ret ptr %11
}

; Function Attrs: inlinehint nounwind uwtable
define internal i32 @PACKET_get_bytes(ptr noundef %0, ptr noundef %1, i64 noundef %2) #3 {
  %4 = alloca i32, align 4
  %5 = alloca ptr, align 8
  %6 = alloca ptr, align 8
  %7 = alloca i64, align 8
  store ptr %0, ptr %5, align 8, !tbaa !40
  store ptr %1, ptr %6, align 8, !tbaa !97
  store i64 %2, ptr %7, align 8, !tbaa !10
  %8 = load ptr, ptr %5, align 8, !tbaa !40
  %9 = load ptr, ptr %6, align 8, !tbaa !97
  %10 = load i64, ptr %7, align 8, !tbaa !10
  %11 = call i32 @PACKET_peek_bytes(ptr noundef %8, ptr noundef %9, i64 noundef %10)
  %12 = icmp ne i32 %11, 0
  br i1 %12, label %14, label %13

13:                                               ; preds = %3
  store i32 0, ptr %4, align 4
  br label %17

14:                                               ; preds = %3
  %15 = load ptr, ptr %5, align 8, !tbaa !40
  %16 = load i64, ptr %7, align 8, !tbaa !10
  call void @packet_forward(ptr noundef %15, i64 noundef %16)
  store i32 1, ptr %4, align 4
  br label %17

17:                                               ; preds = %14, %13
  %18 = load i32, ptr %4, align 4
  ret i32 %18
}

; Function Attrs: inlinehint nounwind uwtable
define internal void @packet_forward(ptr noundef %0, i64 noundef %1) #3 {
  %3 = alloca ptr, align 8
  %4 = alloca i64, align 8
  store ptr %0, ptr %3, align 8, !tbaa !40
  store i64 %1, ptr %4, align 8, !tbaa !10
  %5 = load i64, ptr %4, align 8, !tbaa !10
  %6 = load ptr, ptr %3, align 8, !tbaa !40
  %7 = getelementptr inbounds nuw %struct.PACKET, ptr %6, i32 0, i32 0
  %8 = load ptr, ptr %7, align 8, !tbaa !41
  %9 = getelementptr inbounds nuw i8, ptr %8, i64 %5
  store ptr %9, ptr %7, align 8, !tbaa !41
  %10 = load i64, ptr %4, align 8, !tbaa !10
  %11 = load ptr, ptr %3, align 8, !tbaa !40
  %12 = getelementptr inbounds nuw %struct.PACKET, ptr %11, i32 0, i32 1
  %13 = load i64, ptr %12, align 8, !tbaa !43
  %14 = sub i64 %13, %10
  store i64 %14, ptr %12, align 8, !tbaa !43
  ret void
}

; Function Attrs: inlinehint nounwind uwtable
define internal i32 @PACKET_peek_copy_bytes(ptr noundef %0, ptr noundef %1, i64 noundef %2) #3 {
  %4 = alloca i32, align 4
  %5 = alloca ptr, align 8
  %6 = alloca ptr, align 8
  %7 = alloca i64, align 8
  store ptr %0, ptr %5, align 8, !tbaa !40
  store ptr %1, ptr %6, align 8, !tbaa !25
  store i64 %2, ptr %7, align 8, !tbaa !10
  %8 = load ptr, ptr %5, align 8, !tbaa !40
  %9 = call i64 @PACKET_remaining(ptr noundef %8)
  %10 = load i64, ptr %7, align 8, !tbaa !10
  %11 = icmp ult i64 %9, %10
  br i1 %11, label %12, label %13

12:                                               ; preds = %3
  store i32 0, ptr %4, align 4
  br label %19

13:                                               ; preds = %3
  %14 = load ptr, ptr %6, align 8, !tbaa !25
  %15 = load ptr, ptr %5, align 8, !tbaa !40
  %16 = getelementptr inbounds nuw %struct.PACKET, ptr %15, i32 0, i32 0
  %17 = load ptr, ptr %16, align 8, !tbaa !41
  %18 = load i64, ptr %7, align 8, !tbaa !10
  call void @llvm.memcpy.p0.p0.i64(ptr align 1 %14, ptr align 1 %17, i64 %18, i1 false)
  store i32 1, ptr %4, align 4
  br label %19

19:                                               ; preds = %13, %12
  %20 = load i32, ptr %4, align 4
  ret i32 %20
}

; Function Attrs: nounwind uwtable
define internal i32 @poly_decode_10_bits(ptr noundef %0, ptr noundef %1) #0 {
  %3 = alloca i32, align 4
  %4 = alloca ptr, align 8
  %5 = alloca ptr, align 8
  %6 = alloca ptr, align 8
  %7 = alloca i32, align 4
  %8 = alloca i32, align 4
  %9 = alloca i32, align 4
  %10 = alloca ptr, align 8
  %11 = alloca ptr, align 8
  %12 = alloca i32, align 4
  store ptr %0, ptr %4, align 8, !tbaa !20
  store ptr %1, ptr %5, align 8, !tbaa !40
  call void @llvm.lifetime.start.p0(i64 8, ptr %6) #7
  store ptr null, ptr %6, align 8, !tbaa !25
  call void @llvm.lifetime.start.p0(i64 4, ptr %7) #7
  call void @llvm.lifetime.start.p0(i64 4, ptr %8) #7
  call void @llvm.lifetime.start.p0(i64 4, ptr %9) #7
  store i32 1023, ptr %9, align 4, !tbaa !8
  call void @llvm.lifetime.start.p0(i64 8, ptr %10) #7
  %13 = load ptr, ptr %4, align 8, !tbaa !20
  %14 = getelementptr inbounds nuw %struct.poly_st, ptr %13, i32 0, i32 0
  %15 = getelementptr inbounds [256 x i32], ptr %14, i64 0, i64 0
  store ptr %15, ptr %10, align 8, !tbaa !31
  call void @llvm.lifetime.start.p0(i64 8, ptr %11) #7
  %16 = load ptr, ptr %10, align 8, !tbaa !31
  %17 = getelementptr inbounds i32, ptr %16, i64 256
  store ptr %17, ptr %11, align 8, !tbaa !31
  br label %18

18:                                               ; preds = %53, %2
  %19 = load ptr, ptr %5, align 8, !tbaa !40
  %20 = call i32 @PACKET_get_bytes(ptr noundef %19, ptr noundef %6, i64 noundef 5)
  %21 = icmp ne i32 %20, 0
  br i1 %21, label %23, label %22

22:                                               ; preds = %18
  store i32 0, ptr %3, align 4
  store i32 1, ptr %12, align 4
  br label %58

23:                                               ; preds = %18
  %24 = load ptr, ptr %6, align 8, !tbaa !25
  %25 = call ptr @OPENSSL_load_u32_le(ptr noundef %7, ptr noundef %24)
  store ptr %25, ptr %6, align 8, !tbaa !25
  %26 = load ptr, ptr %6, align 8, !tbaa !25
  %27 = load i8, ptr %26, align 1, !tbaa !33
  %28 = zext i8 %27 to i32
  store i32 %28, ptr %8, align 4, !tbaa !8
  %29 = load i32, ptr %7, align 4, !tbaa !8
  %30 = load i32, ptr %9, align 4, !tbaa !8
  %31 = and i32 %29, %30
  %32 = load ptr, ptr %10, align 8, !tbaa !31
  %33 = getelementptr inbounds nuw i32, ptr %32, i32 1
  store ptr %33, ptr %10, align 8, !tbaa !31
  store i32 %31, ptr %32, align 4, !tbaa !8
  %34 = load i32, ptr %7, align 4, !tbaa !8
  %35 = lshr i32 %34, 10
  %36 = load i32, ptr %9, align 4, !tbaa !8
  %37 = and i32 %35, %36
  %38 = load ptr, ptr %10, align 8, !tbaa !31
  %39 = getelementptr inbounds nuw i32, ptr %38, i32 1
  store ptr %39, ptr %10, align 8, !tbaa !31
  store i32 %37, ptr %38, align 4, !tbaa !8
  %40 = load i32, ptr %7, align 4, !tbaa !8
  %41 = lshr i32 %40, 20
  %42 = load i32, ptr %9, align 4, !tbaa !8
  %43 = and i32 %41, %42
  %44 = load ptr, ptr %10, align 8, !tbaa !31
  %45 = getelementptr inbounds nuw i32, ptr %44, i32 1
  store ptr %45, ptr %10, align 8, !tbaa !31
  store i32 %43, ptr %44, align 4, !tbaa !8
  %46 = load i32, ptr %7, align 4, !tbaa !8
  %47 = lshr i32 %46, 30
  %48 = load i32, ptr %8, align 4, !tbaa !8
  %49 = shl i32 %48, 2
  %50 = or i32 %47, %49
  %51 = load ptr, ptr %10, align 8, !tbaa !31
  %52 = getelementptr inbounds nuw i32, ptr %51, i32 1
  store ptr %52, ptr %10, align 8, !tbaa !31
  store i32 %50, ptr %51, align 4, !tbaa !8
  br label %53

53:                                               ; preds = %23
  %54 = load ptr, ptr %10, align 8, !tbaa !31
  %55 = load ptr, ptr %11, align 8, !tbaa !31
  %56 = icmp ult ptr %54, %55
  br i1 %56, label %18, label %57, !llvm.loop !44

57:                                               ; preds = %53
  store i32 1, ptr %3, align 4
  store i32 1, ptr %12, align 4
  br label %58

58:                                               ; preds = %57, %22
  call void @llvm.lifetime.end.p0(i64 8, ptr %11) #7
  call void @llvm.lifetime.end.p0(i64 8, ptr %10) #7
  call void @llvm.lifetime.end.p0(i64 4, ptr %9) #7
  call void @llvm.lifetime.end.p0(i64 4, ptr %8) #7
  call void @llvm.lifetime.end.p0(i64 4, ptr %7) #7
  call void @llvm.lifetime.end.p0(i64 8, ptr %6) #7
  %59 = load i32, ptr %3, align 4
  ret i32 %59
}

; Function Attrs: inlinehint nounwind uwtable
define internal i32 @PACKET_copy_bytes(ptr noundef %0, ptr noundef %1, i64 noundef %2) #3 {
  %4 = alloca i32, align 4
  %5 = alloca ptr, align 8
  %6 = alloca ptr, align 8
  %7 = alloca i64, align 8
  store ptr %0, ptr %5, align 8, !tbaa !40
  store ptr %1, ptr %6, align 8, !tbaa !25
  store i64 %2, ptr %7, align 8, !tbaa !10
  %8 = load ptr, ptr %5, align 8, !tbaa !40
  %9 = load ptr, ptr %6, align 8, !tbaa !25
  %10 = load i64, ptr %7, align 8, !tbaa !10
  %11 = call i32 @PACKET_peek_copy_bytes(ptr noundef %8, ptr noundef %9, i64 noundef %10)
  %12 = icmp ne i32 %11, 0
  br i1 %12, label %14, label %13

13:                                               ; preds = %3
  store i32 0, ptr %4, align 4
  br label %17

14:                                               ; preds = %3
  %15 = load ptr, ptr %5, align 8, !tbaa !40
  %16 = load i64, ptr %7, align 8, !tbaa !10
  call void @packet_forward(ptr noundef %15, i64 noundef %16)
  store i32 1, ptr %4, align 4
  br label %17

17:                                               ; preds = %14, %13
  %18 = load i32, ptr %4, align 4
  ret i32 %18
}

; Function Attrs: inlinehint nounwind uwtable
define internal i32 @PACKET_buf_init(ptr noundef %0, ptr noundef %1, i64 noundef %2) #3 {
  %4 = alloca i32, align 4
  %5 = alloca ptr, align 8
  %6 = alloca ptr, align 8
  %7 = alloca i64, align 8
  store ptr %0, ptr %5, align 8, !tbaa !40
  store ptr %1, ptr %6, align 8, !tbaa !25
  store i64 %2, ptr %7, align 8, !tbaa !10
  %8 = load i64, ptr %7, align 8, !tbaa !10
  %9 = icmp ugt i64 %8, 9223372036854775807
  br i1 %9, label %10, label %11

10:                                               ; preds = %3
  store i32 0, ptr %4, align 4
  br label %18

11:                                               ; preds = %3
  %12 = load ptr, ptr %6, align 8, !tbaa !25
  %13 = load ptr, ptr %5, align 8, !tbaa !40
  %14 = getelementptr inbounds nuw %struct.PACKET, ptr %13, i32 0, i32 0
  store ptr %12, ptr %14, align 8, !tbaa !41
  %15 = load i64, ptr %7, align 8, !tbaa !10
  %16 = load ptr, ptr %5, align 8, !tbaa !40
  %17 = getelementptr inbounds nuw %struct.PACKET, ptr %16, i32 0, i32 1
  store i64 %15, ptr %17, align 8, !tbaa !43
  store i32 1, ptr %4, align 4
  br label %18

18:                                               ; preds = %11, %10
  %19 = load i32, ptr %4, align 4
  ret i32 %19
}

; Function Attrs: nounwind uwtable
define i32 @ossl_ml_dsa_pk_decode(ptr noundef %0, ptr noundef %1, i64 noundef %2) #0 {
  %4 = alloca i32, align 4
  %5 = alloca ptr, align 8
  %6 = alloca ptr, align 8
  %7 = alloca i64, align 8
  %8 = alloca i32, align 4
  %9 = alloca i64, align 8
  %10 = alloca %struct.PACKET, align 8
  %11 = alloca ptr, align 8
  %12 = alloca i32, align 4
  store ptr %0, ptr %5, align 8, !tbaa !3
  store ptr %1, ptr %6, align 8, !tbaa !25
  store i64 %2, ptr %7, align 8, !tbaa !10
  call void @llvm.lifetime.start.p0(i64 4, ptr %8) #7
  store i32 0, ptr %8, align 4, !tbaa !8
  call void @llvm.lifetime.start.p0(i64 8, ptr %9) #7
  call void @llvm.lifetime.start.p0(i64 16, ptr %10) #7
  call void @llvm.lifetime.start.p0(i64 8, ptr %11) #7
  %13 = load ptr, ptr %5, align 8, !tbaa !3
  %14 = getelementptr inbounds nuw %struct.ml_dsa_key_st, ptr %13, i32 0, i32 8
  %15 = load ptr, ptr %14, align 8, !tbaa !35
  %16 = icmp ne ptr %15, null
  br i1 %16, label %22, label %17

17:                                               ; preds = %3
  %18 = load ptr, ptr %5, align 8, !tbaa !3
  %19 = getelementptr inbounds nuw %struct.ml_dsa_key_st, ptr %18, i32 0, i32 7
  %20 = load ptr, ptr %19, align 8, !tbaa !28
  %21 = icmp ne ptr %20, null
  br i1 %21, label %22, label %23

22:                                               ; preds = %17, %3
  store i32 0, ptr %4, align 4
  store i32 1, ptr %12, align 4
  br label %103

23:                                               ; preds = %17
  %24 = load i64, ptr %7, align 8, !tbaa !10
  %25 = load ptr, ptr %5, align 8, !tbaa !3
  %26 = getelementptr inbounds nuw %struct.ml_dsa_key_st, ptr %25, i32 0, i32 1
  %27 = load ptr, ptr %26, align 8, !tbaa !22
  %28 = getelementptr inbounds nuw %struct.ml_dsa_params_st, ptr %27, i32 0, i32 13
  %29 = load i64, ptr %28, align 8, !tbaa !23
  %30 = icmp ne i64 %24, %29
  br i1 %30, label %31, label %32

31:                                               ; preds = %23
  store i32 0, ptr %4, align 4
  store i32 1, ptr %12, align 4
  br label %103

32:                                               ; preds = %23
  %33 = load ptr, ptr %5, align 8, !tbaa !3
  %34 = call i32 @ossl_ml_dsa_key_pub_alloc(ptr noundef %33)
  %35 = icmp ne i32 %34, 0
  br i1 %35, label %37, label %36

36:                                               ; preds = %32
  store i32 0, ptr %4, align 4
  store i32 1, ptr %12, align 4
  br label %103

37:                                               ; preds = %32
  %38 = call ptr @EVP_MD_CTX_new()
  store ptr %38, ptr %11, align 8, !tbaa !36
  %39 = load ptr, ptr %11, align 8, !tbaa !36
  %40 = icmp eq ptr %39, null
  br i1 %40, label %41, label %42

41:                                               ; preds = %37
  br label %100

42:                                               ; preds = %37
  %43 = load ptr, ptr %6, align 8, !tbaa !25
  %44 = load i64, ptr %7, align 8, !tbaa !10
  %45 = call i32 @PACKET_buf_init(ptr noundef %10, ptr noundef %43, i64 noundef %44)
  %46 = icmp ne i32 %45, 0
  br i1 %46, label %47, label %53

47:                                               ; preds = %42
  %48 = load ptr, ptr %5, align 8, !tbaa !3
  %49 = getelementptr inbounds nuw %struct.ml_dsa_key_st, ptr %48, i32 0, i32 4
  %50 = getelementptr inbounds [32 x i8], ptr %49, i64 0, i64 0
  %51 = call i32 @PACKET_copy_bytes(ptr noundef %10, ptr noundef %50, i64 noundef 32)
  %52 = icmp ne i32 %51, 0
  br i1 %52, label %54, label %53

53:                                               ; preds = %47, %42
  br label %100

54:                                               ; preds = %47
  store i64 0, ptr %9, align 8, !tbaa !10
  br label %55

55:                                               ; preds = %73, %54
  %56 = load i64, ptr %9, align 8, !tbaa !10
  %57 = load ptr, ptr %5, align 8, !tbaa !3
  %58 = getelementptr inbounds nuw %struct.ml_dsa_key_st, ptr %57, i32 0, i32 12
  %59 = getelementptr inbounds nuw %struct.vector_st, ptr %58, i32 0, i32 1
  %60 = load i64, ptr %59, align 8, !tbaa !21
  %61 = icmp ult i64 %56, %60
  br i1 %61, label %62, label %76

62:                                               ; preds = %55
  %63 = load ptr, ptr %5, align 8, !tbaa !3
  %64 = getelementptr inbounds nuw %struct.ml_dsa_key_st, ptr %63, i32 0, i32 12
  %65 = getelementptr inbounds nuw %struct.vector_st, ptr %64, i32 0, i32 0
  %66 = load ptr, ptr %65, align 8, !tbaa !12
  %67 = load i64, ptr %9, align 8, !tbaa !10
  %68 = getelementptr inbounds nuw %struct.poly_st, ptr %66, i64 %67
  %69 = call i32 @poly_decode_10_bits(ptr noundef %68, ptr noundef %10)
  %70 = icmp ne i32 %69, 0
  br i1 %70, label %72, label %71

71:                                               ; preds = %62
  br label %100

72:                                               ; preds = %62
  br label %73

73:                                               ; preds = %72
  %74 = load i64, ptr %9, align 8, !tbaa !10
  %75 = add i64 %74, 1
  store i64 %75, ptr %9, align 8, !tbaa !10
  br label %55, !llvm.loop !38

76:                                               ; preds = %55
  %77 = load ptr, ptr %11, align 8, !tbaa !36
  %78 = load ptr, ptr %5, align 8, !tbaa !3
  %79 = getelementptr inbounds nuw %struct.ml_dsa_key_st, ptr %78, i32 0, i32 3
  %80 = load ptr, ptr %79, align 8, !tbaa !39
  %81 = load ptr, ptr %6, align 8, !tbaa !25
  %82 = load i64, ptr %7, align 8, !tbaa !10
  %83 = load ptr, ptr %5, align 8, !tbaa !3
  %84 = getelementptr inbounds nuw %struct.ml_dsa_key_st, ptr %83, i32 0, i32 5
  %85 = getelementptr inbounds [64 x i8], ptr %84, i64 0, i64 0
  %86 = call i32 @shake_xof(ptr noundef %77, ptr noundef %80, ptr noundef %81, i64 noundef %82, ptr noundef %85, i64 noundef 64)
  %87 = icmp ne i32 %86, 0
  br i1 %87, label %89, label %88

88:                                               ; preds = %76
  br label %100

89:                                               ; preds = %76
  %90 = load ptr, ptr %6, align 8, !tbaa !25
  %91 = load i64, ptr %7, align 8, !tbaa !10
  %92 = call noalias ptr @CRYPTO_memdup(ptr noundef %90, i64 noundef %91, ptr noundef @.str, i32 noundef 690)
  %93 = load ptr, ptr %5, align 8, !tbaa !3
  %94 = getelementptr inbounds nuw %struct.ml_dsa_key_st, ptr %93, i32 0, i32 7
  store ptr %92, ptr %94, align 8, !tbaa !28
  %95 = load ptr, ptr %5, align 8, !tbaa !3
  %96 = getelementptr inbounds nuw %struct.ml_dsa_key_st, ptr %95, i32 0, i32 7
  %97 = load ptr, ptr %96, align 8, !tbaa !28
  %98 = icmp ne ptr %97, null
  %99 = zext i1 %98 to i32
  store i32 %99, ptr %8, align 4, !tbaa !8
  br label %100

100:                                              ; preds = %89, %88, %71, %53, %41
  %101 = load ptr, ptr %11, align 8, !tbaa !36
  call void @EVP_MD_CTX_free(ptr noundef %101)
  %102 = load i32, ptr %8, align 4, !tbaa !8
  store i32 %102, ptr %4, align 4
  store i32 1, ptr %12, align 4
  br label %103

103:                                              ; preds = %100, %36, %31, %22
  call void @llvm.lifetime.end.p0(i64 8, ptr %11) #7
  call void @llvm.lifetime.end.p0(i64 16, ptr %10) #7
  call void @llvm.lifetime.end.p0(i64 8, ptr %9) #7
  call void @llvm.lifetime.end.p0(i64 4, ptr %8) #7
  %104 = load i32, ptr %4, align 4
  ret i32 %104
}