; Function Attrs: nounwind uwtable
define range(i32 0, 2) i32 @ossl_ml_dsa_pk_decode(ptr noundef %0, ptr noundef %1, i64 noundef %2) local_unnamed_addr #0 {
  %4 = getelementptr inbounds nuw i8, ptr %0, i64 168
  %5 = load ptr, ptr %4, align 8, !tbaa !28
  %.not = icmp eq ptr %5, null
  br i1 %.not, label %6, label %58

6:                                                ; preds = %3
  %7 = getelementptr inbounds nuw i8, ptr %0, i64 160
  %8 = load ptr, ptr %7, align 8, !tbaa !27
  %.not29 = icmp eq ptr %8, null
  br i1 %.not29, label %9, label %58

9:                                                ; preds = %6
  %10 = getelementptr inbounds nuw i8, ptr %0, i64 8
  %11 = load ptr, ptr %10, align 8, !tbaa !18
  %12 = getelementptr inbounds nuw i8, ptr %11, i64 72
  %13 = load i64, ptr %12, align 8, !tbaa !19
  %.not30 = icmp eq i64 %2, %13
  br i1 %.not30, label %14, label %58

14:                                               ; preds = %9
  %15 = tail call i32 @ossl_ml_dsa_key_pub_alloc(ptr noundef nonnull %0) #9
  %.not31 = icmp eq i32 %15, 0
  br i1 %.not31, label %58, label %16

16:                                               ; preds = %14
  %17 = tail call ptr @EVP_MD_CTX_new() #9
  %18 = icmp eq ptr %17, null
  %19 = icmp slt i64 %2, 0
  %or.cond = or i1 %19, %18
  %20 = icmp samesign ult i64 %2, 32
  %or.cond52 = select i1 %or.cond, i1 true, i1 %20
  br i1 %or.cond52, label %PACKET_buf_init.exit.thread, label %PACKET_copy_bytes.exit

PACKET_copy_bytes.exit:                           ; preds = %16
  %21 = getelementptr inbounds nuw i8, ptr %0, i64 32
  tail call void @llvm.memcpy.p0.p0.i64(ptr noundef nonnull align 1 dereferenceable(32) %21, ptr noundef nonnull align 1 dereferenceable(32) %1, i64 32, i1 false)
  %22 = getelementptr inbounds nuw i8, ptr %0, i64 200
  %23 = load i64, ptr %22, align 8, !tbaa !17
  %.not57 = icmp eq i64 %23, 0
  br i1 %.not57, label %._crit_edge, label %.lr.ph

.lr.ph:                                           ; preds = %PACKET_copy_bytes.exit
  %24 = add nsw i64 %2, -32
  %25 = getelementptr inbounds nuw i8, ptr %1, i64 32
  %26 = getelementptr inbounds nuw i8, ptr %0, i64 192
  %27 = load ptr, ptr %26, align 8, !tbaa !7
  br label %28

28:                                               ; preds = %.lr.ph, %poly_decode_10_bits.exit
  %.02556 = phi i64 [ 0, %.lr.ph ], [ %49, %poly_decode_10_bits.exit ]
  %.sroa.0.055 = phi ptr [ %25, %.lr.ph ], [ %34, %poly_decode_10_bits.exit ]
  %.sroa.8.054 = phi i64 [ %24, %.lr.ph ], [ %35, %poly_decode_10_bits.exit ]
  %29 = getelementptr inbounds nuw %struct.poly_st, ptr %27, i64 %.02556
  br label %30

30:                                               ; preds = %33, %28
  %.sroa.0.3 = phi ptr [ %.sroa.0.055, %28 ], [ %34, %33 ]
  %31 = phi i64 [ %.sroa.8.054, %28 ], [ %35, %33 ]
  %.013.idx.i = phi i64 [ 0, %28 ], [ %.013.add.i, %33 ]
  %32 = icmp ult i64 %31, 5
  br i1 %32, label %PACKET_buf_init.exit.thread, label %33

33:                                               ; preds = %30
  %34 = getelementptr inbounds nuw i8, ptr %.sroa.0.3, i64 5
  %35 = add i64 %31, -5
  %.013.ptr.i = getelementptr inbounds nuw i8, ptr %29, i64 %.013.idx.i
  %.0.copyload.i.i = load i32, ptr %.sroa.0.3, align 1
  %36 = getelementptr inbounds nuw i8, ptr %.sroa.0.3, i64 4
  %37 = load i8, ptr %36, align 1, !tbaa !23
  %38 = zext i8 %37 to i32
  %39 = and i32 %.0.copyload.i.i, 1023
  %40 = getelementptr inbounds nuw i8, ptr %.013.ptr.i, i64 4
  store i32 %39, ptr %.013.ptr.i, align 4, !tbaa !21
  %41 = lshr i32 %.0.copyload.i.i, 10
  %42 = and i32 %41, 1023
  %43 = getelementptr inbounds nuw i8, ptr %.013.ptr.i, i64 8
  store i32 %42, ptr %40, align 4, !tbaa !21
  %44 = lshr i32 %.0.copyload.i.i, 20
  %45 = and i32 %44, 1023
  %46 = getelementptr inbounds nuw i8, ptr %.013.ptr.i, i64 12
  store i32 %45, ptr %43, align 4, !tbaa !21
  %47 = tail call i32 @llvm.fshl.i32(i32 %38, i32 %.0.copyload.i.i, i32 2)
  %.013.add.i = add nuw nsw i64 %.013.idx.i, 16
  store i32 %47, ptr %46, align 4, !tbaa !21
  %48 = icmp samesign ult i64 %.013.idx.i, 1008
  br i1 %48, label %30, label %poly_decode_10_bits.exit, !llvm.loop !29

poly_decode_10_bits.exit:                         ; preds = %33
  %49 = add nuw i64 %.02556, 1
  %exitcond.not = icmp eq i64 %49, %23
  br i1 %exitcond.not, label %._crit_edge, label %28, !llvm.loop !30

._crit_edge:                                      ; preds = %poly_decode_10_bits.exit, %PACKET_copy_bytes.exit
  %50 = getelementptr inbounds nuw i8, ptr %0, i64 24
  %51 = load ptr, ptr %50, align 8, !tbaa !31
  %52 = getelementptr inbounds nuw i8, ptr %0, i64 64
  %53 = tail call fastcc i32 @shake_xof(ptr noundef %17, ptr noundef %51, ptr noundef nonnull %1, i64 noundef %2, ptr noundef nonnull %52)
  %.not34 = icmp eq i32 %53, 0
  br i1 %.not34, label %PACKET_buf_init.exit.thread, label %54

54:                                               ; preds = %._crit_edge
  %55 = tail call noalias ptr @CRYPTO_memdup(ptr noundef nonnull %1, i64 noundef %2, ptr noundef nonnull @.str, i32 noundef 690) #9
  store ptr %55, ptr %7, align 8, !tbaa !27
  %56 = icmp ne ptr %55, null
  %57 = zext i1 %56 to i32
  br label %PACKET_buf_init.exit.thread

PACKET_buf_init.exit.thread:                      ; preds = %30, %._crit_edge, %16, %54
  %.026 = phi i32 [ 0, %16 ], [ %57, %54 ], [ 0, %._crit_edge ], [ 0, %30 ]
  tail call void @EVP_MD_CTX_free(ptr noundef %17) #9
  br label %58

58:                                               ; preds = %14, %9, %3, %6, %PACKET_buf_init.exit.thread
  %.0 = phi i32 [ %.026, %PACKET_buf_init.exit.thread ], [ 0, %6 ], [ 0, %3 ], [ 0, %9 ], [ 0, %14 ]
  ret i32 %.0
}